; Function Attrs: mustprogress uwtable
define internal void @"_ZZN9grpc_core21promise_filter_detail12BaseCallData7FlusherD1EvEN3$_08__invokeEPvN4absl12lts_202308026StatusE"(ptr noundef %p, ptr nocapture readnone %0) #3 align 2 personality ptr @__gxx_personality_v0 {
entry:
  %ref.tmp.i = alloca %"class.std::__cxx11::basic_string", align 8
  call void @llvm.lifetime.start.p0(i64 32, ptr nonnull %ref.tmp.i)
  %handler_private.i = getelementptr inbounds i8, ptr %p, i64 24
  %1 = load ptr, ptr %handler_private.i, align 8
  %2 = load atomic i8, ptr getelementptr inbounds (%"class.grpc_core::TraceFlag", ptr @grpc_trace_channel, i64 0, i32 2, i32 0, i32 0) monotonic, align 8
  %3 = and i8 %2, 1
  %tobool.i.i.i.not.i = icmp eq i8 %3, 0
  br i1 %tobool.i.i.i.not.i, label %if.end.i, label %if.then.i

if.then.i:                                        ; preds = %entry
  call void @_Z37grpc_transport_stream_op_batch_stringB5cxx11P30grpc_transport_stream_op_batchb(ptr nonnull sret(%"class.std::__cxx11::basic_string") align 8 %ref.tmp.i, ptr noundef nonnull %p, i1 noundef zeroext false)
  %call3.i = call noundef ptr @_ZNKSt7__cxx1112basic_stringIcSt11char_traitsIcESaIcEE5c_strEv(ptr noundef nonnull align 8 dereferenceable(32) %ref.tmp.i) #31
  invoke void (ptr, i32, i32, ptr, ...) @gpr_log(ptr noundef nonnull @.str.5, i32 noundef 276, i32 noundef 1, ptr noundef nonnull @.str.143, ptr noundef %call3.i)
          to label %invoke.cont.i unwind label %lpad.i

invoke.cont.i:                                    ; preds = %if.then.i
  call void @_ZNSt7__cxx1112basic_stringIcSt11char_traitsIcESaIcEED1Ev(ptr noundef nonnull align 8 dereferenceable(32) %ref.tmp.i) #31
  br label %if.end.i

lpad.i:                                           ; preds = %if.then.i
  %4 = landingpad { ptr, i32 }
          cleanup
  call void @_ZNSt7__cxx1112basic_stringIcSt11char_traitsIcESaIcEED1Ev(ptr noundef nonnull align 8 dereferenceable(32) %ref.tmp.i) #31
  resume { ptr, i32 } %4

if.end.i:                                         ; preds = %invoke.cont.i, %entry
  %elem_.i.i = getelementptr inbounds i8, ptr %1, i64 24
  %5 = load ptr, ptr %elem_.i.i, align 8
  call void @_Z17grpc_call_next_opP17grpc_call_elementP30grpc_transport_stream_op_batch(ptr noundef %5, ptr noundef nonnull %p)
  %call_stack_.i.i = getelementptr inbounds i8, ptr %1, i64 16
  %6 = load ptr, ptr %call_stack_.i.i, align 8
  %7 = atomicrmw sub ptr %6, i64 1 acq_rel, align 8
  %cmp.i.i.i = icmp eq i64 %7, 1
  br i1 %cmp.i.i.i, label %if.then.i.i, label %"_ZZN9grpc_core21promise_filter_detail12BaseCallData7FlusherD1EvENK3$_0clEPvN4absl12lts_202308026StatusE.exit"

if.then.i.i:                                      ; preds = %if.end.i
  call void @_Z19grpc_stream_destroyP20grpc_stream_refcount(ptr noundef nonnull %6)
  br label %"_ZZN9grpc_core21promise_filter_detail12BaseCallData7FlusherD1EvENK3$_0clEPvN4absl12lts_202308026StatusE.exit"

"_ZZN9grpc_core21promise_filter_detail12BaseCallData7FlusherD1EvENK3$_0clEPvN4absl12lts_202308026StatusE.exit": ; preds = %if.end.i, %if.then.i.i
  call void @llvm.lifetime.end.p0(i64 32, ptr nonnull %ref.tmp.i)
  ret void
}